target datalayout = "e-m:e-p270:32:32-p271:32:32-p272:64:64-i64:64-i128:128-f80:128-n8:16:32:64-S128"
target triple = "x86_64-unknown-linux-gnu"

%struct.SiFivePDMAState = type { %struct.SysBusDevice, %struct.MemoryRegion, [8 x ptr], [4 x %struct.sifive_pdma_chan] }
%struct.SysBusDevice = type { %struct.DeviceState, i32, [32 x %struct.anon], i32, [32 x i32] }
%struct.DeviceState = type { %struct.Object, ptr, ptr, i8, i8, i64, ptr, i32, i8, ptr, %struct.NamedGPIOListHead, %struct.NamedClockListHead, %struct.BusStateHead, i32, i32, i32, %struct.ResettableState, ptr, %struct.MemReentrancyGuard }
%struct.Object = type { ptr, ptr, ptr, i32, ptr }
%struct.NamedGPIOListHead = type { ptr }
%struct.NamedClockListHead = type { ptr }
%struct.BusStateHead = type { ptr }
%struct.ResettableState = type { i32, i8, i8 }
%struct.MemReentrancyGuard = type { i8 }
%struct.anon = type { i64, ptr }
%struct.MemoryRegion = type { %struct.Object, i8, i8, i8, i8, i8, i8, i8, i8, i8, i8, ptr, ptr, ptr, ptr, ptr, ptr, i32, i128, i64, ptr, i64, i8, i8, i8, i8, i8, ptr, i64, i32, %union.anon, %union.anon.0, %union.anon.1, ptr, i32, ptr, ptr, i8 }
%union.anon = type { %struct.QTailQLink }
%struct.QTailQLink = type { ptr, ptr }
%union.anon.0 = type { %struct.QTailQLink }
%union.anon.1 = type { %struct.QTailQLink }
%struct.sifive_pdma_chan = type { i32, i32, i64, i64, i64, i32, i64, i64, i64, i32 }

; Function Attrs: nounwind sspstrong uwtable
define internal void @qemu_irq_lower(ptr noundef %irq) #0 {
entry:
  %irq.addr = alloca ptr, align 8
  store ptr %irq, ptr %irq.addr, align 8
  %0 = load ptr, ptr %irq.addr, align 8
  call void @qemu_set_irq(ptr noundef %0, i32 noundef 0)
  ret void
}

; Function Attrs: nounwind sspstrong uwtable
define internal void @qemu_irq_raise(ptr noundef %irq) #0 {
entry:
  %irq.addr = alloca ptr, align 8
  store ptr %irq, ptr %irq.addr, align 8
  %0 = load ptr, ptr %irq.addr, align 8
  call void @qemu_set_irq(ptr noundef %0, i32 noundef 1)
  ret void
}

; Function Attrs: nounwind sspstrong uwtable
define internal void @sifive_pdma_update_irq(ptr noundef %s, i32 noundef %ch) #0 {
entry:
  %s.addr = alloca ptr, align 8
  %ch.addr = alloca i32, align 4
  %done_ie = alloca i8, align 1
  %err_ie = alloca i8, align 1
  store ptr %s, ptr %s.addr, align 8
  store i32 %ch, ptr %ch.addr, align 4
  %0 = load ptr, ptr %s.addr, align 8
  %chan = getelementptr inbounds %struct.SiFivePDMAState, ptr %0, i32 0, i32 3
  %1 = load i32, ptr %ch.addr, align 4
  %idxprom = sext i32 %1 to i64
  %arrayidx = getelementptr [4 x %struct.sifive_pdma_chan], ptr %chan, i64 0, i64 %idxprom
  %control = getelementptr inbounds %struct.sifive_pdma_chan, ptr %arrayidx, i32 0, i32 0
  %2 = load i32, ptr %control, align 8
  %conv = zext i32 %2 to i64
  %and = and i64 %conv, 16384
  %tobool = icmp ne i64 %and, 0
  %lnot = xor i1 %tobool, true
  %lnot1 = xor i1 %lnot, true
  %frombool = zext i1 %lnot1 to i8
  store i8 %frombool, ptr %done_ie, align 1
  %3 = load ptr, ptr %s.addr, align 8
  %chan2 = getelementptr inbounds %struct.SiFivePDMAState, ptr %3, i32 0, i32 3
  %4 = load i32, ptr %ch.addr, align 4
  %idxprom3 = sext i32 %4 to i64
  %arrayidx4 = getelementptr [4 x %struct.sifive_pdma_chan], ptr %chan2, i64 0, i64 %idxprom3
  %control5 = getelementptr inbounds %struct.sifive_pdma_chan, ptr %arrayidx4, i32 0, i32 0
  %5 = load i32, ptr %control5, align 8
  %conv6 = zext i32 %5 to i64
  %and7 = and i64 %conv6, 32768
  %tobool8 = icmp ne i64 %and7, 0
  %lnot9 = xor i1 %tobool8, true
  %lnot10 = xor i1 %lnot9, true
  %frombool11 = zext i1 %lnot10 to i8
  store i8 %frombool11, ptr %err_ie, align 1
  %6 = load i8, ptr %done_ie, align 1
  %tobool12 = trunc i8 %6 to i1
  br i1 %tobool12, label %land.lhs.true, label %if.else

land.lhs.true:                                    ; preds = %entry
  %7 = load ptr, ptr %s.addr, align 8
  %chan14 = getelementptr inbounds %struct.SiFivePDMAState, ptr %7, i32 0, i32 3
  %8 = load i32, ptr %ch.addr, align 4
  %idxprom15 = sext i32 %8 to i64
  %arrayidx16 = getelementptr [4 x %struct.sifive_pdma_chan], ptr %chan14, i64 0, i64 %idxprom15
  %control17 = getelementptr inbounds %struct.sifive_pdma_chan, ptr %arrayidx16, i32 0, i32 0
  %9 = load i32, ptr %control17, align 8
  %conv18 = zext i32 %9 to i64
  %and19 = and i64 %conv18, 1073741824
  %tobool20 = icmp ne i64 %and19, 0
  br i1 %tobool20, label %if.then, label %if.else

if.then:                                          ; preds = %land.lhs.true
  %10 = load ptr, ptr %s.addr, align 8
  %irq = getelementptr inbounds %struct.SiFivePDMAState, ptr %10, i32 0, i32 2
  %11 = load i32, ptr %ch.addr, align 4
  %mul = mul i32 %11, 2
  %idxprom21 = sext i32 %mul to i64
  %arrayidx22 = getelementptr [8 x ptr], ptr %irq, i64 0, i64 %idxprom21
  %12 = load ptr, ptr %arrayidx22, align 8
  call void @qemu_irq_raise(ptr noundef %12)
  br label %if.end

if.else:                                          ; preds = %land.lhs.true, %entry
  %13 = load ptr, ptr %s.addr, align 8
  %irq23 = getelementptr inbounds %struct.SiFivePDMAState, ptr %13, i32 0, i32 2
  %14 = load i32, ptr %ch.addr, align 4
  %mul24 = mul i32 %14, 2
  %idxprom25 = sext i32 %mul24 to i64
  %arrayidx26 = getelementptr [8 x ptr], ptr %irq23, i64 0, i64 %idxprom25
  %15 = load ptr, ptr %arrayidx26, align 8
  call void @qemu_irq_lower(ptr noundef %15)
  br label %if.end

if.end:                                           ; preds = %if.else, %if.then
  %16 = load i8, ptr %err_ie, align 1
  %tobool27 = trunc i8 %16 to i1
  br i1 %tobool27, label %land.lhs.true29, label %if.else42

land.lhs.true29:                                  ; preds = %if.end
  %17 = load ptr, ptr %s.addr, align 8
  %chan30 = getelementptr inbounds %struct.SiFivePDMAState, ptr %17, i32 0, i32 3
  %18 = load i32, ptr %ch.addr, align 4
  %idxprom31 = sext i32 %18 to i64
  %arrayidx32 = getelementptr [4 x %struct.sifive_pdma_chan], ptr %chan30, i64 0, i64 %idxprom31
  %control33 = getelementptr inbounds %struct.sifive_pdma_chan, ptr %arrayidx32, i32 0, i32 0
  %19 = load i32, ptr %control33, align 8
  %conv34 = zext i32 %19 to i64
  %and35 = and i64 %conv34, 2147483648
  %tobool36 = icmp ne i64 %and35, 0
  br i1 %tobool36, label %if.then37, label %if.else42

if.then37:                                        ; preds = %land.lhs.true29
  %20 = load ptr, ptr %s.addr, align 8
  %irq38 = getelementptr inbounds %struct.SiFivePDMAState, ptr %20, i32 0, i32 2
  %21 = load i32, ptr %ch.addr, align 4
  %mul39 = mul i32 %21, 2
  %add = add i32 %mul39, 1
  %idxprom40 = sext i32 %add to i64
  %arrayidx41 = getelementptr [8 x ptr], ptr %irq38, i64 0, i64 %idxprom40
  %22 = load ptr, ptr %arrayidx41, align 8
  call void @qemu_irq_raise(ptr noundef %22)
  br label %if.end48

if.else42:                                        ; preds = %land.lhs.true29, %if.end
  %23 = load ptr, ptr %s.addr, align 8
  %irq43 = getelementptr inbounds %struct.SiFivePDMAState, ptr %23, i32 0, i32 2
  %24 = load i32, ptr %ch.addr, align 4
  %mul44 = mul i32 %24, 2
  %add45 = add i32 %mul44, 1
  %idxprom46 = sext i32 %add45 to i64
  %arrayidx47 = getelementptr [8 x ptr], ptr %irq43, i64 0, i64 %idxprom46
  %25 = load ptr, ptr %arrayidx47, align 8
  call void @qemu_irq_lower(ptr noundef %25)
  br label %if.end48

if.end48:                                         ; preds = %if.else42, %if.then37
  %26 = load ptr, ptr %s.addr, align 8
  %chan49 = getelementptr inbounds %struct.SiFivePDMAState, ptr %26, i32 0, i32 3
  %27 = load i32, ptr %ch.addr, align 4
  %idxprom50 = sext i32 %27 to i64
  %arrayidx51 = getelementptr [4 x %struct.sifive_pdma_chan], ptr %chan49, i64 0, i64 %idxprom50
  %state = getelementptr inbounds %struct.sifive_pdma_chan, ptr %arrayidx51, i32 0, i32 9
  store i32 0, ptr %state, align 8
  ret void
}