; Function Attrs: nounwind sspstrong uwtable
define internal fastcc void @sifive_pdma_update_irq(ptr noundef captures(none) %s, i32 noundef range(i32 0, 4) %ch) unnamed_addr #0 {
entry:
  %chan = getelementptr inbounds nuw i8, ptr %s, i64 1152
  %idxprom = zext nneg i32 %ch to i64
  %arrayidx = getelementptr [4 x %struct.sifive_pdma_chan], ptr %chan, i64 0, i64 %idxprom
  %0 = load i32, ptr %arrayidx, align 8
  %conv = zext i32 %0 to i64
  %and7 = and i64 %conv, 32768
  %tobool8.not = icmp eq i64 %and7, 0
  %1 = and i64 %conv, 1073758208
  %or.cond.not = icmp eq i64 %1, 1073758208
  %irq = getelementptr inbounds nuw i8, ptr %s, i64 1088
  %mul = shl nuw nsw i32 %ch, 1
  %idxprom21 = zext nneg i32 %mul to i64
  %arrayidx22 = getelementptr [8 x ptr], ptr %irq, i64 0, i64 %idxprom21
  %2 = load ptr, ptr %arrayidx22, align 8
  %. = zext i1 %or.cond.not to i32
  tail call void @qemu_set_irq(ptr noundef %2, i32 noundef %.) #4
  br i1 %tobool8.not, label %if.else42, label %land.lhs.true29

land.lhs.true29:                                  ; preds = %entry
  %3 = load i32, ptr %arrayidx, align 8
  %tobool36.not = icmp sgt i32 %3, -1
  br i1 %tobool36.not, label %if.else42, label %if.end48

if.else42:                                        ; preds = %land.lhs.true29, %entry
  br label %if.end48

if.end48:                                         ; preds = %land.lhs.true29, %if.else42
  %.sink18 = phi i32 [ 0, %if.else42 ], [ 1, %land.lhs.true29 ]
  %irq43 = getelementptr inbounds nuw i8, ptr %s, i64 1088
  %mul44 = shl nuw nsw i32 %ch, 1
  %add45 = or disjoint i32 %mul44, 1
  %idxprom46 = zext nneg i32 %add45 to i64
  %arrayidx47 = getelementptr [8 x ptr], ptr %irq43, i64 0, i64 %idxprom46
  %4 = load ptr, ptr %arrayidx47, align 8
  tail call void @qemu_set_irq(ptr noundef %4, i32 noundef %.sink18) #4
  %state = getelementptr inbounds nuw i8, ptr %arrayidx, i64 64
  store i32 0, ptr %state, align 8
  ret void
}